target datalayout = "e-m:e-p270:32:32-p271:32:32-p272:64:64-i64:64-i128:128-f80:128-n8:16:32:64-S128"
target triple = "x86_64-pc-linux-gnu"

%struct._lv_image_decoder_dsc_t = type { ptr, %struct._lv_image_decoder_args_t, ptr, i32, %struct.lv_fs_file_t, %struct.lv_image_header_t, ptr, ptr, i32, i32, ptr, ptr, ptr, ptr }
%struct._lv_image_decoder_args_t = type { i8, i8, i8, i8, i8 }
%struct.lv_fs_file_t = type { ptr, ptr, ptr }
%struct.lv_image_header_t = type <{ i64, i32 }>

; Function Attrs: nounwind uwtable
define internal void @svg_decoder_close(ptr noundef %0, ptr noundef %1) #0 {
  %3 = alloca ptr, align 8
  %4 = alloca ptr, align 8
  store ptr %0, ptr %3, align 8, !tbaa !3
  store ptr %1, ptr %4, align 8, !tbaa !11
  %5 = load ptr, ptr %4, align 8, !tbaa !11
  %6 = getelementptr inbounds nuw %struct._lv_image_decoder_dsc_t, ptr %5, i32 0, i32 1
  %7 = getelementptr inbounds nuw %struct._lv_image_decoder_args_t, ptr %6, i32 0, i32 2
  %8 = load i8, ptr %7, align 2, !tbaa !67, !range !68, !noundef !69
  %9 = trunc i8 %8 to i1
  br i1 %9, label %12, label %10

10:                                               ; preds = %2
  %11 = call zeroext i1 @lv_image_cache_is_enabled()
  br i1 %11, label %16, label %12

12:                                               ; preds = %10, %2
  %13 = load ptr, ptr %4, align 8, !tbaa !11
  %14 = getelementptr inbounds nuw %struct._lv_image_decoder_dsc_t, ptr %13, i32 0, i32 6
  %15 = load ptr, ptr %14, align 8, !tbaa !66
  call void @lv_draw_buf_destroy(ptr noundef %15)
  br label %16

16:                                               ; preds = %12, %10
  ret void
}