; Function Attrs: nounwind uwtable
define internal void @svg_decoder_close(ptr readnone captures(none) %0, ptr noundef readonly captures(none) %1) #0 {
  %3 = getelementptr inbounds nuw i8, ptr %1, i64 10
  %4 = load i8, ptr %3, align 2, !tbaa !60, !range !61, !noundef !62
  %5 = trunc nuw i8 %4 to i1
  br i1 %5, label %8, label %6

6:                                                ; preds = %2
  %7 = tail call zeroext i1 @lv_image_cache_is_enabled() #4
  br i1 %7, label %11, label %8

8:                                                ; preds = %6, %2
  %9 = getelementptr inbounds nuw i8, ptr %1, i64 72
  %10 = load ptr, ptr %9, align 8, !tbaa !59
  tail call void @lv_draw_buf_destroy(ptr noundef %10) #4
  br label %11

11:                                               ; preds = %8, %6
  ret void
}